; Function Attrs: mustprogress uwtable
define dso_local noundef nonnull align 8 dereferenceable(112) ptr @_ZN7V3Error19v3errorPrepFileLineB5cxx11E11V3ErrorCodePKci(i8 %0, ptr noundef %1, i32 noundef %2) #8 align 2 personality ptr @__gxx_personality_v0 {
  %4 = tail call noundef nonnull align 8 dereferenceable(112) ptr @_ZN7V3Error11v3errorPrepB5cxx11E11V3ErrorCode(i8 %0)
  %.not.i = icmp eq ptr %1, null
  br i1 %.not.i, label %5, label %13

5:                                                ; preds = %3
  %6 = load ptr, ptr %4, align 8, !tbaa !52
  %7 = getelementptr i8, ptr %6, i64 -24
  %8 = load i64, ptr %7, align 8
  %9 = getelementptr inbounds i8, ptr %4, i64 %8
  %10 = getelementptr inbounds nuw i8, ptr %9, i64 32
  %11 = load i32, ptr %10, align 8, !tbaa !174
  %12 = or i32 %11, 1
  tail call void @_ZNSt9basic_iosIcSt11char_traitsIcEE5clearESt12_Ios_Iostate(ptr noundef nonnull align 8 dereferenceable(264) %9, i32 noundef %12)
  br label %_ZStlsISt11char_traitsIcEERSt13basic_ostreamIcT_ES5_PKc.exit

13:                                               ; preds = %3
  %14 = tail call noundef i64 @strlen(ptr noundef nonnull dereferenceable(1) %1) #30
  %15 = tail call noundef nonnull align 8 dereferenceable(8) ptr @_ZSt16__ostream_insertIcSt11char_traitsIcEERSt13basic_ostreamIT_T0_ES6_PKS3_l(ptr noundef nonnull align 8 dereferenceable(8) %4, ptr noundef nonnull %1, i64 noundef %14)
  br label %_ZStlsISt11char_traitsIcEERSt13basic_ostreamIcT_ES5_PKc.exit

_ZStlsISt11char_traitsIcEERSt13basic_ostreamIcT_ES5_PKc.exit: ; preds = %5, %13
  %16 = tail call noundef nonnull align 8 dereferenceable(8) ptr @_ZSt16__ostream_insertIcSt11char_traitsIcEERSt13basic_ostreamIT_T0_ES6_PKS3_l(ptr noundef nonnull align 8 dereferenceable(8) %4, ptr noundef nonnull @.str.33, i64 noundef 1)
  %17 = load ptr, ptr %4, align 8, !tbaa !52
  %18 = getelementptr i8, ptr %17, i64 -24
  %19 = load i64, ptr %18, align 8
  %20 = getelementptr inbounds i8, ptr %4, i64 %19
  %21 = getelementptr inbounds nuw i8, ptr %20, i64 24
  %22 = load i32, ptr %21, align 8, !tbaa !175
  %23 = and i32 %22, -75
  %24 = or disjoint i32 %23, 2
  store i32 %24, ptr %21, align 4, !tbaa !176
  %25 = tail call noundef nonnull align 8 dereferenceable(8) ptr @_ZNSolsEi(ptr noundef nonnull align 8 dereferenceable(8) %4, i32 noundef %2)
  %26 = tail call noundef nonnull align 8 dereferenceable(8) ptr @_ZSt16__ostream_insertIcSt11char_traitsIcEERSt13basic_ostreamIT_T0_ES6_PKS3_l(ptr noundef nonnull align 8 dereferenceable(8) %25, ptr noundef nonnull @.str.8, i64 noundef 2)
  %27 = load atomic i8, ptr @_ZGVZN7V3Error1sEvE3s_s acquire, align 8
  %28 = icmp eq i8 %27, 0
  br i1 %28, label %29, label %_ZN7V3Error10v3errorStrB5cxx11Ev.exit, !prof !50

29:                                               ; preds = %_ZStlsISt11char_traitsIcEERSt13basic_ostreamIcT_ES5_PKc.exit
  %30 = tail call i32 @__cxa_guard_acquire(ptr nonnull @_ZGVZN7V3Error1sEvE3s_s) #30
  %.not.i.i = icmp eq i32 %30, 0
  br i1 %.not.i.i, label %_ZN7V3Error10v3errorStrB5cxx11Ev.exit, label %31

31:                                               ; preds = %29
  invoke void @_ZN14V3ErrorGuardedC2Ev(ptr noundef nonnull align 8 dereferenceable(760) @_ZZN7V3Error1sEvE3s_s)
          to label %32 unwind label %34

32:                                               ; preds = %31
  %33 = tail call i32 @__cxa_atexit(ptr nonnull @_ZN14V3ErrorGuardedD2Ev, ptr nonnull @_ZZN7V3Error1sEvE3s_s, ptr nonnull @__dso_handle) #30
  tail call void @__cxa_guard_release(ptr nonnull @_ZGVZN7V3Error1sEvE3s_s) #30
  br label %_ZN7V3Error10v3errorStrB5cxx11Ev.exit

34:                                               ; preds = %31
  %35 = landingpad { ptr, i32 }
          cleanup
  tail call void @__cxa_guard_abort(ptr nonnull @_ZGVZN7V3Error1sEvE3s_s) #30
  resume { ptr, i32 } %35

_ZN7V3Error10v3errorStrB5cxx11Ev.exit:            ; preds = %_ZStlsISt11char_traitsIcEERSt13basic_ostreamIcT_ES5_PKc.exit, %29, %32
  %36 = tail call noundef nonnull align 8 dereferenceable(112) ptr @llvm.ptr.annotation.p0.p0(ptr nonnull getelementptr inbounds nuw (i8, ptr @_ZZN7V3Error1sEvE3s_s, i64 344), ptr nonnull @.str, ptr nonnull @.str.2, i32 337, ptr null)
  ret ptr %36
}